target datalayout = "e-m:e-p270:32:32-p271:32:32-p272:64:64-i64:64-i128:128-f80:128-n8:16:32:64-S128"
target triple = "x86_64-pc-linux-gnu"

%struct._object = type { %union.anon, ptr }
%union.anon = type { i64 }

@.str.16 = private unnamed_addr constant [7 x i8] c"decref\00", align 1
@_Py_NoneStruct = external global %struct._object, align 8
@interp_decref.kwlist = internal global [3 x ptr] [ptr @.str.33, ptr @.str.34, ptr null], align 16
@.str.91 = private unnamed_addr constant [12 x i8] c"O|$p:decref\00", align 1

; Function Attrs: nounwind uwtable
define internal ptr @interp_decref(ptr noundef %0, ptr noundef %1, ptr noundef %2) #0 {
  %4 = alloca ptr, align 8
  %5 = alloca ptr, align 8
  %6 = alloca ptr, align 8
  %7 = alloca ptr, align 8
  %8 = alloca ptr, align 8
  %9 = alloca i32, align 4
  %10 = alloca i32, align 4
  %11 = alloca i32, align 4
  %12 = alloca ptr, align 8
  store ptr %0, ptr %5, align 8, !tbaa !3
  store ptr %1, ptr %6, align 8, !tbaa !3
  store ptr %2, ptr %7, align 8, !tbaa !3
  call void @llvm.lifetime.start.p0(i64 8, ptr %8) #8
  call void @llvm.lifetime.start.p0(i64 4, ptr %9) #8
  store i32 0, ptr %9, align 4, !tbaa !11
  %13 = load ptr, ptr %6, align 8, !tbaa !3
  %14 = load ptr, ptr %7, align 8, !tbaa !3
  %15 = call i32 (ptr, ptr, ptr, ptr, ...) @PyArg_ParseTupleAndKeywords(ptr noundef %13, ptr noundef %14, ptr noundef @.str.91, ptr noundef @interp_decref.kwlist, ptr noundef %8, ptr noundef %9)
  %16 = icmp ne i32 %15, 0
  br i1 %16, label %18, label %17

17:                                               ; preds = %3
  store ptr null, ptr %4, align 8
  store i32 1, ptr %10, align 4
  br label %29

18:                                               ; preds = %3
  call void @llvm.lifetime.start.p0(i64 4, ptr %11) #8
  store i32 1, ptr %11, align 4, !tbaa !11
  call void @llvm.lifetime.start.p0(i64 8, ptr %12) #8
  %19 = load ptr, ptr %8, align 8, !tbaa !3
  %20 = load i32, ptr %9, align 4, !tbaa !11
  %21 = load i32, ptr %11, align 4, !tbaa !11
  %22 = call ptr @resolve_interp(ptr noundef %19, i32 noundef %20, i32 noundef %21, ptr noundef @.str.16)
  store ptr %22, ptr %12, align 8, !tbaa !15
  %23 = load ptr, ptr %12, align 8, !tbaa !15
  %24 = icmp eq ptr %23, null
  br i1 %24, label %25, label %26

25:                                               ; preds = %18
  store ptr null, ptr %4, align 8
  store i32 1, ptr %10, align 4
  br label %28

26:                                               ; preds = %18
  %27 = load ptr, ptr %12, align 8, !tbaa !15
  call void @_PyInterpreterState_IDDecref(ptr noundef %27)
  store ptr @_Py_NoneStruct, ptr %4, align 8
  store i32 1, ptr %10, align 4
  br label %28

28:                                               ; preds = %26, %25
  call void @llvm.lifetime.end.p0(i64 8, ptr %12) #8
  call void @llvm.lifetime.end.p0(i64 4, ptr %11) #8
  br label %29

29:                                               ; preds = %28, %17
  call void @llvm.lifetime.end.p0(i64 4, ptr %9) #8
  call void @llvm.lifetime.end.p0(i64 8, ptr %8) #8
  %30 = load ptr, ptr %4, align 8
  ret ptr %30
}