; Function Attrs: nounwind uwtable
define internal noundef ptr @interp_decref(ptr readnone captures(none) %0, ptr noundef %1, ptr noundef %2) #0 {
  %4 = alloca ptr, align 8
  %5 = alloca i32, align 4
  call void @llvm.lifetime.start.p0(i64 8, ptr nonnull %4) #7
  call void @llvm.lifetime.start.p0(i64 4, ptr nonnull %5) #7
  store i32 0, ptr %5, align 4, !tbaa !14
  %6 = call i32 (ptr, ptr, ptr, ptr, ...) @PyArg_ParseTupleAndKeywords(ptr noundef %1, ptr noundef %2, ptr noundef nonnull @.str.91, ptr noundef nonnull @interp_decref.kwlist, ptr noundef nonnull %4, ptr noundef nonnull %5) #7
  %.not = icmp eq i32 %6, 0
  br i1 %.not, label %13, label %7

7:                                                ; preds = %3
  %8 = load ptr, ptr %4, align 8, !tbaa !15
  %9 = load i32, ptr %5, align 4, !tbaa !14
  %10 = call fastcc ptr @resolve_interp(ptr noundef %8, i32 noundef %9, i32 noundef 1, ptr noundef nonnull @.str.16)
  %11 = icmp eq ptr %10, null
  br i1 %11, label %13, label %12

12:                                               ; preds = %7
  call void @_PyInterpreterState_IDDecref(ptr noundef nonnull %10) #7
  br label %13

13:                                               ; preds = %12, %7, %3
  %.0 = phi ptr [ null, %3 ], [ @_Py_NoneStruct, %12 ], [ null, %7 ]
  call void @llvm.lifetime.end.p0(i64 4, ptr nonnull %5) #7
  call void @llvm.lifetime.end.p0(i64 8, ptr nonnull %4) #7
  ret ptr %.0
}